opt subtitle "HI-TECH Software Omniscient Code Generator (Lite mode) build 6446"

opt pagewidth 120

	opt lm

	processor	16F877A
clrc	macro
	bcf	3,0
	endm
clrz	macro
	bcf	3,2
	endm
setc	macro
	bsf	3,0
	endm
setz	macro
	bsf	3,2
	endm
skipc	macro
	btfss	3,0
	endm
skipz	macro
	btfss	3,2
	endm
skipnc	macro
	btfsc	3,0
	endm
skipnz	macro
	btfsc	3,2
	endm
indf	equ	0
indf0	equ	0
pc	equ	2
pcl	equ	2
status	equ	3
fsr	equ	4
fsr0	equ	4
c	equ	1
z	equ	0
pclath	equ	10
# 6 "C:\Users\vinoth k\OneDrive\Desktop\pic codings\ADC peripheral\ADC.c"
	psect config,class=CONFIG,delta=2 ;#
# 6 "C:\Users\vinoth k\OneDrive\Desktop\pic codings\ADC peripheral\ADC.c"
	dw 0X3F72 ;#
	FNCALL	_main,_lcd_init
	FNCALL	_main,___awdiv
	FNCALL	_main,___awmod
	FNCALL	_main,_lcd_cmd
	FNCALL	_main,_lcd_data
	FNCALL	_lcd_init,_lcd_cmd
	FNCALL	_lcd_cmd,_delay
	FNCALL	_lcd_data,_delay
	FNROOT	_main
	global	_a
	global	_b
	global	_c
	global	_d
	global	_e
	global	_f
	global	_i
	global	_temp
	global	_ADCON0
psect	text158,local,class=CODE,delta=2
global __ptext158
__ptext158:
_ADCON0	set	31
	global	_ADRESH
_ADRESH	set	30
	global	_PORTB
_PORTB	set	6
	global	_PORTD
_PORTD	set	8
	global	_ADON
_ADON	set	248
	global	_CHS0
_CHS0	set	251
	global	_CHS1
_CHS1	set	252
	global	_CHS2
_CHS2	set	253
	global	_RB1
_RB1	set	49
	global	_RD6
_RD6	set	70
	global	_RD7
_RD7	set	71
	global	_ADCON1
_ADCON1	set	159
	global	_ADRESL
_ADRESL	set	158
	global	_TRISB
_TRISB	set	134
	global	_TRISD
_TRISD	set	136
	file	"ADC.as"
	line	#
psect cinit,class=CODE,delta=2
global start_initialization
start_initialization:

psect	bssCOMMON,class=COMMON,space=1
global __pbssCOMMON
__pbssCOMMON:
_temp:
       ds      2

psect	bssBANK0,class=BANK0,space=1
global __pbssBANK0
__pbssBANK0:
_a:
       ds      2

_b:
       ds      2

_c:
       ds      2

_d:
       ds      2

_e:
       ds      2

_f:
       ds      2

_i:
       ds      2

; Clear objects allocated to COMMON
psect cinit,class=CODE,delta=2
	clrf	((__pbssCOMMON)+0)&07Fh
	clrf	((__pbssCOMMON)+1)&07Fh
; Clear objects allocated to BANK0
psect cinit,class=CODE,delta=2
	clrf	((__pbssBANK0)+0)&07Fh
	clrf	((__pbssBANK0)+1)&07Fh
	clrf	((__pbssBANK0)+2)&07Fh
	clrf	((__pbssBANK0)+3)&07Fh
	clrf	((__pbssBANK0)+4)&07Fh
	clrf	((__pbssBANK0)+5)&07Fh
	clrf	((__pbssBANK0)+6)&07Fh
	clrf	((__pbssBANK0)+7)&07Fh
	clrf	((__pbssBANK0)+8)&07Fh
	clrf	((__pbssBANK0)+9)&07Fh
	clrf	((__pbssBANK0)+10)&07Fh
	clrf	((__pbssBANK0)+11)&07Fh
	clrf	((__pbssBANK0)+12)&07Fh
	clrf	((__pbssBANK0)+13)&07Fh
psect cinit,class=CODE,delta=2
global end_of_initialization

;End of C runtime variable initialization code

end_of_initialization:
clrf status
ljmp _main	;jump to C main() function
psect	cstackCOMMON,class=COMMON,space=1
global __pcstackCOMMON
__pcstackCOMMON:
	global	?_delay
?_delay:	; 0 bytes @ 0x0
	global	??_delay
??_delay:	; 0 bytes @ 0x0
	global	?_lcd_data
?_lcd_data:	; 0 bytes @ 0x0
	global	?_lcd_init
?_lcd_init:	; 0 bytes @ 0x0
	global	?_main
?_main:	; 2 bytes @ 0x0
	global	?___awdiv
?___awdiv:	; 2 bytes @ 0x0
	global	?___awmod
?___awmod:	; 2 bytes @ 0x0
	global	delay@x
delay@x:	; 1 bytes @ 0x0
	global	___awdiv@divisor
___awdiv@divisor:	; 2 bytes @ 0x0
	global	___awmod@divisor
___awmod@divisor:	; 2 bytes @ 0x0
	ds	1
	global	??_lcd_data
??_lcd_data:	; 0 bytes @ 0x1
	global	?_lcd_cmd
?_lcd_cmd:	; 0 bytes @ 0x1
	global	lcd_data@data
lcd_data@data:	; 1 bytes @ 0x1
	global	lcd_cmd@cmd
lcd_cmd@cmd:	; 2 bytes @ 0x1
	ds	1
	global	___awdiv@dividend
___awdiv@dividend:	; 2 bytes @ 0x2
	global	___awmod@dividend
___awmod@dividend:	; 2 bytes @ 0x2
	ds	1
	global	??_lcd_cmd
??_lcd_cmd:	; 0 bytes @ 0x3
	global	??_lcd_init
??_lcd_init:	; 0 bytes @ 0x3
	ds	1
	global	??___awdiv
??___awdiv:	; 0 bytes @ 0x4
	global	??___awmod
??___awmod:	; 0 bytes @ 0x4
	ds	1
	global	___awdiv@counter
___awdiv@counter:	; 1 bytes @ 0x5
	global	___awmod@counter
___awmod@counter:	; 1 bytes @ 0x5
	ds	1
	global	___awdiv@sign
___awdiv@sign:	; 1 bytes @ 0x6
	global	___awmod@sign
___awmod@sign:	; 1 bytes @ 0x6
	ds	1
	global	___awdiv@quotient
___awdiv@quotient:	; 2 bytes @ 0x7
	ds	2
	global	??_main
??_main:	; 0 bytes @ 0x9
	ds	2
;;Data sizes: Strings 0, constant 0, data 0, bss 16, persistent 0 stack 0
;;Auto spaces:   Size  Autos    Used
;; COMMON          14     11      13
;; BANK0           80      0      14
;; BANK1           80      0       0
;; BANK3           96      0       0
;; BANK2           96      0       0

;;
;; Pointer list with targets:

;; ?___awmod	int  size(1) Largest target is 0
;;
;; ?___awdiv	int  size(1) Largest target is 0
;;


;;
;; Critical Paths under _main in COMMON
;;
;;   _main->___awdiv
;;   _lcd_init->_lcd_cmd
;;   _lcd_cmd->_delay
;;   _lcd_data->_delay
;;
;; Critical Paths under _main in BANK0
;;
;;   None.
;;
;; Critical Paths under _main in BANK1
;;
;;   None.
;;
;; Critical Paths under _main in BANK3
;;
;;   None.
;;
;; Critical Paths under _main in BANK2
;;
;;   None.

;;
;;Main: autosize = 0, tempsize = 2, incstack = 0, save=0
;;

;;
;;Call Graph Tables:
;;
;; ---------------------------------------------------------------------------------
;; (Depth) Function   	        Calls       Base Space   Used Autos Params    Refs
;; ---------------------------------------------------------------------------------
;; (0) _main                                                 2     2      0     728
;;                                              9 COMMON     2     2      0
;;                           _lcd_init
;;                            ___awdiv
;;                            ___awmod
;;                            _lcd_cmd
;;                           _lcd_data
;; ---------------------------------------------------------------------------------
;; (1) _lcd_init                                             0     0      0      44
;;                            _lcd_cmd
;; ---------------------------------------------------------------------------------
;; (1) _lcd_cmd                                              2     0      2      44
;;                                              1 COMMON     2     0      2
;;                              _delay
;; ---------------------------------------------------------------------------------
;; (1) _lcd_data                                             1     1      0      44
;;                                              1 COMMON     1     1      0
;;                              _delay
;; ---------------------------------------------------------------------------------
;; (1) ___awmod                                              7     3      4     296
;;                                              0 COMMON     7     3      4
;; ---------------------------------------------------------------------------------
;; (1) ___awdiv                                              9     5      4     300
;;                                              0 COMMON     9     5      4
;; ---------------------------------------------------------------------------------
;; (2) _delay                                                1     1      0      22
;;                                              0 COMMON     1     1      0
;; ---------------------------------------------------------------------------------
;; Estimated maximum stack depth 2
;; ---------------------------------------------------------------------------------

;; Call Graph Graphs:

;; _main (ROOT)
;;   _lcd_init
;;     _lcd_cmd
;;       _delay
;;   ___awdiv
;;   ___awmod
;;   _lcd_cmd
;;     _delay
;;   _lcd_data
;;     _delay
;;

;; Address spaces:

;;Name               Size   Autos  Total    Cost      Usage
;;BITCOMMON            E      0       0       0        0.0%
;;EEDATA             100      0       0       0        0.0%
;;NULL                 0      0       0       0        0.0%
;;CODE                 0      0       0       0        0.0%
;;COMMON               E      B       D       1       92.9%
;;BITSFR0              0      0       0       1        0.0%
;;SFR0                 0      0       0       1        0.0%
;;BITSFR1              0      0       0       2        0.0%
;;SFR1                 0      0       0       2        0.0%
;;STACK                0      0       3       2        0.0%
;;ABS                  0      0      1B       3        0.0%
;;BITBANK0            50      0       0       4        0.0%
;;BITSFR3              0      0       0       4        0.0%
;;SFR3                 0      0       0       4        0.0%
;;BANK0               50      0       E       5       17.5%
;;BITSFR2              0      0       0       5        0.0%
;;SFR2                 0      0       0       5        0.0%
;;BITBANK1            50      0       0       6        0.0%
;;BANK1               50      0       0       7        0.0%
;;BITBANK3            60      0       0       8        0.0%
;;BANK3               60      0       0       9        0.0%
;;BITBANK2            60      0       0      10        0.0%
;;BANK2               60      0       0      11        0.0%
;;DATA                 0      0      1E      12        0.0%

	global	_main
psect	maintext,global,class=CODE,delta=2
global __pmaintext
__pmaintext:

;; *************** function _main *****************
;; Defined at:
;;		line 47 in file "C:\Users\vinoth k\OneDrive\Desktop\pic codings\ADC peripheral\ADC.c"
;; Parameters:    Size  Location     Type
;;		None
;; Auto vars:     Size  Location     Type
;;		None
;; Return value:  Size  Location     Type
;;                  2  595[COMMON] int 
;; Registers used:
;;		wreg, status,2, status,0, btemp+0, pclath, cstack
;; Tracked objects:
;;		On entry : 17F/0
;;		On exit  : 0/0
;;		Unchanged: 0/0
;; Data sizes:     COMMON   BANK0   BANK1   BANK3   BANK2
;;      Params:         0       0       0       0       0
;;      Locals:         0       0       0       0       0
;;      Temps:          2       0       0       0       0
;;      Totals:         2       0       0       0       0
;;Total ram usage:        2 bytes
;; Hardware stack levels required when called:    3
;; This function calls:
;;		_lcd_init
;;		___awdiv
;;		___awmod
;;		_lcd_cmd
;;		_lcd_data
;; This function is called by:
;;		Startup code after reset
;; This function uses a non-reentrant model
;;
psect	maintext
	file	"C:\Users\vinoth k\OneDrive\Desktop\pic codings\ADC peripheral\ADC.c"
	line	47
	global	__size_of_main
	__size_of_main	equ	__end_of_main-_main
	
_main:	
	opt	stack 8
; Regs used in _main: [wreg+status,2-btemp+0+pclath+cstack]
	line	48
	
l2036:	
;ADC.c: 48: TRISB=0x00;
	bsf	status, 5	;RP0=1, select bank1
	bcf	status, 6	;RP1=0, select bank1
	clrf	(134)^080h	;volatile
	line	49
;ADC.c: 49: PORTB=0x00;
	bcf	status, 5	;RP0=0, select bank0
	bcf	status, 6	;RP1=0, select bank0
	clrf	(6)	;volatile
	line	50
;ADC.c: 50: TRISD=0x00;
	bsf	status, 5	;RP0=1, select bank1
	bcf	status, 6	;RP1=0, select bank1
	clrf	(136)^080h	;volatile
	line	51
;ADC.c: 51: PORTD=0x00;
	bcf	status, 5	;RP0=0, select bank0
	bcf	status, 6	;RP1=0, select bank0
	clrf	(8)	;volatile
	line	52
	
l2038:	
;ADC.c: 52: ADCON0=0x40;
	movlw	(040h)
	movwf	(31)	;volatile
	line	53
	
l2040:	
;ADC.c: 53: ADCON1=0x8E;
	movlw	(08Eh)
	bsf	status, 5	;RP0=1, select bank1
	bcf	status, 6	;RP1=0, select bank1
	movwf	(159)^080h	;volatile
	line	54
	
l2042:	
;ADC.c: 54: lcd_init();
	fcall	_lcd_init
	line	55
;ADC.c: 55: while(1)
	
l596:	
	line	57
	
l2044:	
;ADC.c: 56: {
;ADC.c: 57: CHS2=0;
	bcf	status, 5	;RP0=0, select bank0
	bcf	status, 6	;RP1=0, select bank0
	bcf	(253/8),(253)&7
	line	58
	
l2046:	
;ADC.c: 58: CHS1=0;
	bcf	(252/8),(252)&7
	line	59
	
l2048:	
;ADC.c: 59: CHS0=0;
	bcf	(251/8),(251)&7
	line	60
	
l2050:	
;ADC.c: 60: ADON=1;
	bsf	(248/8),(248)&7
	line	61
	
l2052:	
;ADC.c: 61: ADCON0=(ADCON0|0x04);
	movf	(31),w	;volatile
	iorlw	04h
	movwf	(31)	;volatile
	line	62
	
l2054:	
;ADC.c: 62: temp=ADRESH<<8;
	movf	(30),w	;volatile
	movwf	(??_main+0)+0
	clrf	(??_main+0)+0+1
	movlw	08h
	movwf	btemp+0
u2385:
	clrc
	rlf	(??_main+0)+0,f
	rlf	(??_main+0)+1,f
	decfsz	btemp+0,f
	goto	u2385
	movf	0+(??_main+0)+0,w
	movwf	(_temp)
	movf	1+(??_main+0)+0,w
	movwf	(_temp+1)
	line	63
	
l2056:	
;ADC.c: 63: temp=temp+ADRESL;
	bsf	status, 5	;RP0=1, select bank1
	bcf	status, 6	;RP1=0, select bank1
	movf	(158)^080h,w	;volatile
	addwf	(_temp),w
	movwf	(_temp)
	movf	(_temp+1),w
	skipnc
	incf	(_temp+1),w
	movwf	((_temp))+1
	line	64
	
l2058:	
;ADC.c: 64: a=temp/1000;
	movlw	low(03E8h)
	movwf	(?___awdiv)
	movlw	high(03E8h)
	movwf	((?___awdiv))+1
	movf	(_temp+1),w
	clrf	1+(?___awdiv)+02h
	addwf	1+(?___awdiv)+02h
	movf	(_temp),w
	clrf	0+(?___awdiv)+02h
	addwf	0+(?___awdiv)+02h

	fcall	___awdiv
	movf	(1+(?___awdiv)),w
	bcf	status, 5	;RP0=0, select bank0
	bcf	status, 6	;RP1=0, select bank0
	clrf	(_a+1)
	addwf	(_a+1)
	movf	(0+(?___awdiv)),w
	clrf	(_a)
	addwf	(_a)

	line	65
	
l2060:	
;ADC.c: 65: b=temp%1000;
	movlw	low(03E8h)
	movwf	(?___awmod)
	movlw	high(03E8h)
	movwf	((?___awmod))+1
	movf	(_temp+1),w
	clrf	1+(?___awmod)+02h
	addwf	1+(?___awmod)+02h
	movf	(_temp),w
	clrf	0+(?___awmod)+02h
	addwf	0+(?___awmod)+02h

	fcall	___awmod
	movf	(1+(?___awmod)),w
	bcf	status, 5	;RP0=0, select bank0
	bcf	status, 6	;RP1=0, select bank0
	clrf	(_b+1)
	addwf	(_b+1)
	movf	(0+(?___awmod)),w
	clrf	(_b)
	addwf	(_b)

	line	66
	
l2062:	
;ADC.c: 66: c=b/100;
	movlw	low(064h)
	movwf	(?___awdiv)
	movlw	high(064h)
	movwf	((?___awdiv))+1
	movf	(_b+1),w
	clrf	1+(?___awdiv)+02h
	addwf	1+(?___awdiv)+02h
	movf	(_b),w
	clrf	0+(?___awdiv)+02h
	addwf	0+(?___awdiv)+02h

	fcall	___awdiv
	movf	(1+(?___awdiv)),w
	bcf	status, 5	;RP0=0, select bank0
	bcf	status, 6	;RP1=0, select bank0
	clrf	(_c+1)
	addwf	(_c+1)
	movf	(0+(?___awdiv)),w
	clrf	(_c)
	addwf	(_c)

	line	67
	
l2064:	
;ADC.c: 67: d=b%100;
	movlw	low(064h)
	movwf	(?___awmod)
	movlw	high(064h)
	movwf	((?___awmod))+1
	movf	(_b+1),w
	clrf	1+(?___awmod)+02h
	addwf	1+(?___awmod)+02h
	movf	(_b),w
	clrf	0+(?___awmod)+02h
	addwf	0+(?___awmod)+02h

	fcall	___awmod
	movf	(1+(?___awmod)),w
	bcf	status, 5	;RP0=0, select bank0
	bcf	status, 6	;RP1=0, select bank0
	clrf	(_d+1)
	addwf	(_d+1)
	movf	(0+(?___awmod)),w
	clrf	(_d)
	addwf	(_d)

	line	68
	
l2066:	
;ADC.c: 68: e=d/10;
	movlw	low(0Ah)
	movwf	(?___awdiv)
	movlw	high(0Ah)
	movwf	((?___awdiv))+1
	movf	(_d+1),w
	clrf	1+(?___awdiv)+02h
	addwf	1+(?___awdiv)+02h
	movf	(_d),w
	clrf	0+(?___awdiv)+02h
	addwf	0+(?___awdiv)+02h

	fcall	___awdiv
	movf	(1+(?___awdiv)),w
	bcf	status, 5	;RP0=0, select bank0
	bcf	status, 6	;RP1=0, select bank0
	clrf	(_e+1)
	addwf	(_e+1)
	movf	(0+(?___awdiv)),w
	clrf	(_e)
	addwf	(_e)

	line	69
	
l2068:	
;ADC.c: 69: f=d%10;
	movlw	low(0Ah)
	movwf	(?___awmod)
	movlw	high(0Ah)
	movwf	((?___awmod))+1
	movf	(_d+1),w
	clrf	1+(?___awmod)+02h
	addwf	1+(?___awmod)+02h
	movf	(_d),w
	clrf	0+(?___awmod)+02h
	addwf	0+(?___awmod)+02h

	fcall	___awmod
	movf	(1+(?___awmod)),w
	bcf	status, 5	;RP0=0, select bank0
	bcf	status, 6	;RP1=0, select bank0
	clrf	(_f+1)
	addwf	(_f+1)
	movf	(0+(?___awmod)),w
	clrf	(_f)
	addwf	(_f)

	line	70
	
l2070:	
;ADC.c: 70: lcd_cmd(0xC0);
	movlw	low(0C0h)
	movwf	(?_lcd_cmd)
	movlw	high(0C0h)
	movwf	((?_lcd_cmd))+1
	fcall	_lcd_cmd
	line	71
	
l2072:	
;ADC.c: 71: lcd_data(a+48);
	bcf	status, 5	;RP0=0, select bank0
	bcf	status, 6	;RP1=0, select bank0
	movf	(_a),w
	addlw	030h
	fcall	_lcd_data
	line	72
	
l2074:	
;ADC.c: 72: lcd_data(c+48);
	bcf	status, 5	;RP0=0, select bank0
	bcf	status, 6	;RP1=0, select bank0
	movf	(_c),w
	addlw	030h
	fcall	_lcd_data
	line	73
	
l2076:	
;ADC.c: 73: lcd_data(e+48);
	bcf	status, 5	;RP0=0, select bank0
	bcf	status, 6	;RP1=0, select bank0
	movf	(_e),w
	addlw	030h
	fcall	_lcd_data
	line	74
	
l2078:	
;ADC.c: 74: lcd_data(f+48);
	bcf	status, 5	;RP0=0, select bank0
	bcf	status, 6	;RP1=0, select bank0
	movf	(_f),w
	addlw	030h
	fcall	_lcd_data
	line	75
	
l597:	
	line	55
	goto	l596
	
l598:	
	line	76
	
l599:	
	global	start
	ljmp	start
	opt stack 0
GLOBAL	__end_of_main
	__end_of_main:
;; =============== function _main ends ============

	signat	_main,90
	global	_lcd_init
psect	text159,local,class=CODE,delta=2
global __ptext159
__ptext159:

;; *************** function _lcd_init *****************
;; Defined at:
;;		line 31 in file "C:\Users\vinoth k\OneDrive\Desktop\pic codings\ADC peripheral\ADC.c"
;; Parameters:    Size  Location     Type
;;		None
;; Auto vars:     Size  Location     Type
;;		None
;; Return value:  Size  Location     Type
;;		None               void
;; Registers used:
;;		wreg, status,2, status,0, pclath, cstack
;; Tracked objects:
;;		On entry : 0/0
;;		On exit  : 0/0
;;		Unchanged: 0/0
;; Data sizes:     COMMON   BANK0   BANK1   BANK3   BANK2
;;      Params:         0       0       0       0       0
;;      Locals:         0       0       0       0       0
;;      Temps:          0       0       0       0       0
;;      Totals:         0       0       0       0       0
;;Total ram usage:        0 bytes
;; Hardware stack levels used:    1
;; Hardware stack levels required when called:    2
;; This function calls:
;;		_lcd_cmd
;; This function is called by:
;;		_main
;; This function uses a non-reentrant model
;;
psect	text159
	file	"C:\Users\vinoth k\OneDrive\Desktop\pic codings\ADC peripheral\ADC.c"
	line	31
	global	__size_of_lcd_init
	__size_of_lcd_init	equ	__end_of_lcd_init-_lcd_init
	
_lcd_init:	
	opt	stack 7
; Regs used in _lcd_init: [wreg+status,2+status,0+pclath+cstack]
	line	32
	
l2034:	
;ADC.c: 32: lcd_cmd(0x38);
	movlw	low(038h)
	movwf	(?_lcd_cmd)
	movlw	high(038h)
	movwf	((?_lcd_cmd))+1
	fcall	_lcd_cmd
	line	33
;ADC.c: 33: lcd_cmd(0x06);
	movlw	low(06h)
	movwf	(?_lcd_cmd)
	movlw	high(06h)
	movwf	((?_lcd_cmd))+1
	fcall	_lcd_cmd
	line	34
;ADC.c: 34: lcd_cmd(0x0C);
	movlw	low(0Ch)
	movwf	(?_lcd_cmd)
	movlw	high(0Ch)
	movwf	((?_lcd_cmd))+1
	fcall	_lcd_cmd
	line	35
;ADC.c: 35: lcd_cmd(0x80);
	movlw	low(080h)
	movwf	(?_lcd_cmd)
	movlw	high(080h)
	movwf	((?_lcd_cmd))+1
	fcall	_lcd_cmd
	line	36
;ADC.c: 36: lcd_cmd(0xC0);
	movlw	low(0C0h)
	movwf	(?_lcd_cmd)
	movlw	high(0C0h)
	movwf	((?_lcd_cmd))+1
	fcall	_lcd_cmd
	line	37
;ADC.c: 37: lcd_cmd(0x01);
	movlw	low(01h)
	movwf	(?_lcd_cmd)
	movlw	high(01h)
	movwf	((?_lcd_cmd))+1
	fcall	_lcd_cmd
	line	38
	
l587:	
	return
	opt stack 0
GLOBAL	__end_of_lcd_init
	__end_of_lcd_init:
;; =============== function _lcd_init ends ============

	signat	_lcd_init,88
	global	_lcd_cmd
psect	text160,local,class=CODE,delta=2
global __ptext160
__ptext160:

;; *************** function _lcd_cmd *****************
;; Defined at:
;;		line 22 in file "C:\Users\vinoth k\OneDrive\Desktop\pic codings\ADC peripheral\ADC.c"
;; Parameters:    Size  Location     Type
;;  cmd             2    1[COMMON] unsigned int 
;; Auto vars:     Size  Location     Type
;;		None
;; Return value:  Size  Location     Type
;;		None               void
;; Registers used:
;;		wreg, status,2, status,0, pclath, cstack
;; Tracked objects:
;;		On entry : 0/0
;;		On exit  : 0/0
;;		Unchanged: 0/0
;; Data sizes:     COMMON   BANK0   BANK1   BANK3   BANK2
;;      Params:         2       0       0       0       0
;;      Locals:         0       0       0       0       0
;;      Temps:          0       0       0       0       0
;;      Totals:         2       0       0       0       0
;;Total ram usage:        2 bytes
;; Hardware stack levels used:    1
;; Hardware stack levels required when called:    1
;; This function calls:
;;		_delay
;; This function is called by:
;;		_lcd_init
;;		_main
;; This function uses a non-reentrant model
;;
psect	text160
	file	"C:\Users\vinoth k\OneDrive\Desktop\pic codings\ADC peripheral\ADC.c"
	line	22
	global	__size_of_lcd_cmd
	__size_of_lcd_cmd	equ	__end_of_lcd_cmd-_lcd_cmd
	
_lcd_cmd:	
	opt	stack 7
; Regs used in _lcd_cmd: [wreg+status,2+status,0+pclath+cstack]
	line	23
	
l2022:	
;ADC.c: 23: PORTB=cmd;
	movf	(lcd_cmd@cmd),w
	bcf	status, 5	;RP0=0, select bank0
	bcf	status, 6	;RP1=0, select bank0
	movwf	(6)	;volatile
	line	24
	
l2024:	
;ADC.c: 24: RD6=0;
	bcf	(70/8),(70)&7
	line	25
	
l2026:	
;ADC.c: 25: RB1=0;
	bcf	(49/8),(49)&7
	line	26
	
l2028:	
;ADC.c: 26: RD7=1;
	bsf	(71/8),(71)&7
	line	27
	
l2030:	
;ADC.c: 27: delay(1000);
	movlw	(0E8h)
	fcall	_delay
	line	28
	
l2032:	
;ADC.c: 28: RD7=0;
	bcf	status, 5	;RP0=0, select bank0
	bcf	status, 6	;RP1=0, select bank0
	bcf	(71/8),(71)&7
	line	29
	
l584:	
	return
	opt stack 0
GLOBAL	__end_of_lcd_cmd
	__end_of_lcd_cmd:
;; =============== function _lcd_cmd ends ============

	signat	_lcd_cmd,4216
	global	_lcd_data
psect	text161,local,class=CODE,delta=2
global __ptext161
__ptext161:

;; *************** function _lcd_data *****************
;; Defined at:
;;		line 13 in file "C:\Users\vinoth k\OneDrive\Desktop\pic codings\ADC peripheral\ADC.c"
;; Parameters:    Size  Location     Type
;;  data            1    wreg     unsigned char 
;; Auto vars:     Size  Location     Type
;;  data            1    1[COMMON] unsigned char 
;; Return value:  Size  Location     Type
;;		None               void
;; Registers used:
;;		wreg, status,2, status,0, pclath, cstack
;; Tracked objects:
;;		On entry : 0/0
;;		On exit  : 0/0
;;		Unchanged: 0/0
;; Data sizes:     COMMON   BANK0   BANK1   BANK3   BANK2
;;      Params:         0       0       0       0       0
;;      Locals:         1       0       0       0       0
;;      Temps:          0       0       0       0       0
;;      Totals:         1       0       0       0       0
;;Total ram usage:        1 bytes
;; Hardware stack levels used:    1
;; Hardware stack levels required when called:    1
;; This function calls:
;;		_delay
;; This function is called by:
;;		_main
;;		_lcd_display
;; This function uses a non-reentrant model
;;
psect	text161
	file	"C:\Users\vinoth k\OneDrive\Desktop\pic codings\ADC peripheral\ADC.c"
	line	13
	global	__size_of_lcd_data
	__size_of_lcd_data	equ	__end_of_lcd_data-_lcd_data
	
_lcd_data:	
	opt	stack 7
; Regs used in _lcd_data: [wreg+status,2+status,0+pclath+cstack]
;lcd_data@data stored from wreg
	movwf	(lcd_data@data)
	line	14
	
l2010:	
;ADC.c: 14: PORTB=data;
	movf	(lcd_data@data),w
	bcf	status, 5	;RP0=0, select bank0
	bcf	status, 6	;RP1=0, select bank0
	movwf	(6)	;volatile
	line	15
	
l2012:	
;ADC.c: 15: RD6=1;
	bsf	(70/8),(70)&7
	line	16
	
l2014:	
;ADC.c: 16: RB1=0;
	bcf	(49/8),(49)&7
	line	17
	
l2016:	
;ADC.c: 17: RD7=1;
	bsf	(71/8),(71)&7
	line	18
	
l2018:	
;ADC.c: 18: delay(1000);
	movlw	(0E8h)
	fcall	_delay
	line	19
	
l2020:	
;ADC.c: 19: RD7=0;
	bcf	status, 5	;RP0=0, select bank0
	bcf	status, 6	;RP1=0, select bank0
	bcf	(71/8),(71)&7
	line	20
	
l581:	
	return
	opt stack 0
GLOBAL	__end_of_lcd_data
	__end_of_lcd_data:
;; =============== function _lcd_data ends ============

	signat	_lcd_data,4216
	global	___awmod
psect	text162,local,class=CODE,delta=2
global __ptext162
__ptext162:

;; *************** function ___awmod *****************
;; Defined at:
;;		line 5 in file "C:\Program Files (x86)\HI-TECH Software\PICC\9.71a\sources\awmod.c"
;; Parameters:    Size  Location     Type
;;  divisor         2    0[COMMON] int 
;;  dividend        2    2[COMMON] int 
;; Auto vars:     Size  Location     Type
;;  sign            1    6[COMMON] unsigned char 
;;  counter         1    5[COMMON] unsigned char 
;; Return value:  Size  Location     Type
;;                  2    0[COMMON] int 
;; Registers used:
;;		wreg, status,2, status,0
;; Tracked objects:
;;		On entry : 0/0
;;		On exit  : 0/0
;;		Unchanged: 0/0
;; Data sizes:     COMMON   BANK0   BANK1   BANK3   BANK2
;;      Params:         4       0       0       0       0
;;      Locals:         2       0       0       0       0
;;      Temps:          1       0       0       0       0
;;      Totals:         7       0       0       0       0
;;Total ram usage:        7 bytes
;; Hardware stack levels used:    1
;; This function calls:
;;		Nothing
;; This function is called by:
;;		_main
;; This function uses a non-reentrant model
;;
psect	text162
	file	"C:\Program Files (x86)\HI-TECH Software\PICC\9.71a\sources\awmod.c"
	line	5
	global	__size_of___awmod
	__size_of___awmod	equ	__end_of___awmod-___awmod
	
___awmod:	
	opt	stack 7
; Regs used in ___awmod: [wreg+status,2+status,0]
	line	8
	
l1974:	
	clrc
	movlw	0
	btfsc	status,0
	movlw	1
	movwf	(___awmod@sign)
	line	9
	
l1976:	
	btfss	(___awmod@dividend+1),7
	goto	u2291
	goto	u2290
u2291:
	goto	l816
u2290:
	line	10
	
l1978:	
	comf	(___awmod@dividend),f
	comf	(___awmod@dividend+1),f
	incf	(___awmod@dividend),f
	skipnz
	incf	(___awmod@dividend+1),f
	line	11
	clrf	(___awmod@sign)
	bsf	status,0
	rlf	(___awmod@sign),f
	line	12
	
l816:	
	line	13
	
l1980:	
	btfss	(___awmod@divisor+1),7
	goto	u2301
	goto	u2300
u2301:
	goto	l817
u2300:
	line	14
	
l1982:	
	comf	(___awmod@divisor),f
	comf	(___awmod@divisor+1),f
	incf	(___awmod@divisor),f
	skipnz
	incf	(___awmod@divisor+1),f
	
l817:	
	line	15
	
l1984:	
	movf	(___awmod@divisor+1),w
	iorwf	(___awmod@divisor),w
	skipnz
	goto	u2311
	goto	u2310
u2311:
	goto	l818
u2310:
	line	16
	
l1986:	
	clrf	(___awmod@counter)
	bsf	status,0
	rlf	(___awmod@counter),f
	line	17
	goto	l819
	
l820:	
	line	18
	
l1988:	
	movlw	01h
	
u2325:
	clrc
	rlf	(___awmod@divisor),f
	rlf	(___awmod@divisor+1),f
	addlw	-1
	skipz
	goto	u2325
	line	19
	
l1990:	
	movlw	(01h)
	movwf	(??___awmod+0)+0
	movf	(??___awmod+0)+0,w
	addwf	(___awmod@counter),f
	line	20
	
l819:	
	line	17
	
l1992:	
	btfss	(___awmod@divisor+1),(15)&7
	goto	u2331
	goto	u2330
u2331:
	goto	l820
u2330:
	
l821:	
	line	21
	
l822:	
	line	22
	
l1994:	
	movf	(___awmod@divisor+1),w
	subwf	(___awmod@dividend+1),w
	skipz
	goto	u2345
	movf	(___awmod@divisor),w
	subwf	(___awmod@dividend),w
u2345:
	skipc
	goto	u2341
	goto	u2340
u2341:
	goto	l823
u2340:
	line	23
	
l1996:	
	movf	(___awmod@divisor),w
	subwf	(___awmod@dividend),f
	movf	(___awmod@divisor+1),w
	skipc
	decf	(___awmod@dividend+1),f
	subwf	(___awmod@dividend+1),f
	
l823:	
	line	24
	
l1998:	
	movlw	01h
	
u2355:
	clrc
	rrf	(___awmod@divisor+1),f
	rrf	(___awmod@divisor),f
	addlw	-1
	skipz
	goto	u2355
	line	25
	
l2000:	
	movlw	low(01h)
	subwf	(___awmod@counter),f
	btfss	status,2
	goto	u2361
	goto	u2360
u2361:
	goto	l822
u2360:
	
l824:	
	line	26
	
l818:	
	line	27
	
l2002:	
	movf	(___awmod@sign),w
	skipz
	goto	u2370
	goto	l825
u2370:
	line	28
	
l2004:	
	comf	(___awmod@dividend),f
	comf	(___awmod@dividend+1),f
	incf	(___awmod@dividend),f
	skipnz
	incf	(___awmod@dividend+1),f
	
l825:	
	line	29
	
l2006:	
	movf	(___awmod@dividend+1),w
	clrf	(?___awmod+1)
	addwf	(?___awmod+1)
	movf	(___awmod@dividend),w
	clrf	(?___awmod)
	addwf	(?___awmod)

	
l2008:	
	line	30
	
l826:	
	return
	opt stack 0
GLOBAL	__end_of___awmod
	__end_of___awmod:
;; =============== function ___awmod ends ============

	signat	___awmod,8314
	global	___awdiv
psect	text163,local,class=CODE,delta=2
global __ptext163
__ptext163:

;; *************** function ___awdiv *****************
;; Defined at:
;;		line 5 in file "C:\Program Files (x86)\HI-TECH Software\PICC\9.71a\sources\awdiv.c"
;; Parameters:    Size  Location     Type
;;  divisor         2    0[COMMON] int 
;;  dividend        2    2[COMMON] int 
;; Auto vars:     Size  Location     Type
;;  quotient        2    7[COMMON] int 
;;  sign            1    6[COMMON] unsigned char 
;;  counter         1    5[COMMON] unsigned char 
;; Return value:  Size  Location     Type
;;                  2    0[COMMON] int 
;; Registers used:
;;		wreg, status,2, status,0
;; Tracked objects:
;;		On entry : 0/0
;;		On exit  : 0/0
;;		Unchanged: 0/0
;; Data sizes:     COMMON   BANK0   BANK1   BANK3   BANK2
;;      Params:         4       0       0       0       0
;;      Locals:         4       0       0       0       0
;;      Temps:          1       0       0       0       0
;;      Totals:         9       0       0       0       0
;;Total ram usage:        9 bytes
;; Hardware stack levels used:    1
;; This function calls:
;;		Nothing
;; This function is called by:
;;		_main
;; This function uses a non-reentrant model
;;
psect	text163
	file	"C:\Program Files (x86)\HI-TECH Software\PICC\9.71a\sources\awdiv.c"
	line	5
	global	__size_of___awdiv
	__size_of___awdiv	equ	__end_of___awdiv-___awdiv
	
___awdiv:	
	opt	stack 7
; Regs used in ___awdiv: [wreg+status,2+status,0]
	line	9
	
l1936:	
	clrc
	movlw	0
	btfsc	status,0
	movlw	1
	movwf	(___awdiv@sign)
	line	10
	
l1938:	
	btfss	(___awdiv@divisor+1),7
	goto	u2191
	goto	u2190
u2191:
	goto	l748
u2190:
	line	11
	
l1940:	
	comf	(___awdiv@divisor),f
	comf	(___awdiv@divisor+1),f
	incf	(___awdiv@divisor),f
	skipnz
	incf	(___awdiv@divisor+1),f
	line	12
	clrf	(___awdiv@sign)
	bsf	status,0
	rlf	(___awdiv@sign),f
	line	13
	
l748:	
	line	14
	
l1942:	
	btfss	(___awdiv@dividend+1),7
	goto	u2201
	goto	u2200
u2201:
	goto	l749
u2200:
	line	15
	
l1944:	
	comf	(___awdiv@dividend),f
	comf	(___awdiv@dividend+1),f
	incf	(___awdiv@dividend),f
	skipnz
	incf	(___awdiv@dividend+1),f
	line	16
	
l1946:	
	movlw	(01h)
	movwf	(??___awdiv+0)+0
	movf	(??___awdiv+0)+0,w
	xorwf	(___awdiv@sign),f
	line	17
	
l749:	
	line	18
	movlw	low(0)
	movwf	(___awdiv@quotient)
	movlw	high(0)
	movwf	((___awdiv@quotient))+1
	line	19
	movf	(___awdiv@divisor+1),w
	iorwf	(___awdiv@divisor),w
	skipnz
	goto	u2211
	goto	u2210
u2211:
	goto	l750
u2210:
	line	20
	
l1948:	
	clrf	(___awdiv@counter)
	bsf	status,0
	rlf	(___awdiv@counter),f
	line	21
	goto	l751
	
l752:	
	line	22
	
l1950:	
	movlw	01h
	
u2225:
	clrc
	rlf	(___awdiv@divisor),f
	rlf	(___awdiv@divisor+1),f
	addlw	-1
	skipz
	goto	u2225
	line	23
	
l1952:	
	movlw	(01h)
	movwf	(??___awdiv+0)+0
	movf	(??___awdiv+0)+0,w
	addwf	(___awdiv@counter),f
	line	24
	
l751:	
	line	21
	
l1954:	
	btfss	(___awdiv@divisor+1),(15)&7
	goto	u2231
	goto	u2230
u2231:
	goto	l752
u2230:
	
l753:	
	line	25
	
l754:	
	line	26
	
l1956:	
	movlw	01h
	
u2245:
	clrc
	rlf	(___awdiv@quotient),f
	rlf	(___awdiv@quotient+1),f
	addlw	-1
	skipz
	goto	u2245
	line	27
	movf	(___awdiv@divisor+1),w
	subwf	(___awdiv@dividend+1),w
	skipz
	goto	u2255
	movf	(___awdiv@divisor),w
	subwf	(___awdiv@dividend),w
u2255:
	skipc
	goto	u2251
	goto	u2250
u2251:
	goto	l755
u2250:
	line	28
	
l1958:	
	movf	(___awdiv@divisor),w
	subwf	(___awdiv@dividend),f
	movf	(___awdiv@divisor+1),w
	skipc
	decf	(___awdiv@dividend+1),f
	subwf	(___awdiv@dividend+1),f
	line	29
	
l1960:	
	bsf	(___awdiv@quotient)+(0/8),(0)&7
	line	30
	
l755:	
	line	31
	
l1962:	
	movlw	01h
	
u2265:
	clrc
	rrf	(___awdiv@divisor+1),f
	rrf	(___awdiv@divisor),f
	addlw	-1
	skipz
	goto	u2265
	line	32
	
l1964:	
	movlw	low(01h)
	subwf	(___awdiv@counter),f
	btfss	status,2
	goto	u2271
	goto	u2270
u2271:
	goto	l754
u2270:
	
l756:	
	line	33
	
l750:	
	line	34
	
l1966:	
	movf	(___awdiv@sign),w
	skipz
	goto	u2280
	goto	l757
u2280:
	line	35
	
l1968:	
	comf	(___awdiv@quotient),f
	comf	(___awdiv@quotient+1),f
	incf	(___awdiv@quotient),f
	skipnz
	incf	(___awdiv@quotient+1),f
	
l757:	
	line	36
	
l1970:	
	movf	(___awdiv@quotient+1),w
	clrf	(?___awdiv+1)
	addwf	(?___awdiv+1)
	movf	(___awdiv@quotient),w
	clrf	(?___awdiv)
	addwf	(?___awdiv)

	
l1972:	
	line	37
	
l758:	
	return
	opt stack 0
GLOBAL	__end_of___awdiv
	__end_of___awdiv:
;; =============== function ___awdiv ends ============

	signat	___awdiv,8314
	global	_delay
psect	text164,local,class=CODE,delta=2
global __ptext164
__ptext164:

;; *************** function _delay *****************
;; Defined at:
;;		line 9 in file "C:\Users\vinoth k\OneDrive\Desktop\pic codings\ADC peripheral\ADC.c"
;; Parameters:    Size  Location     Type
;;  x               1    wreg     unsigned char 
;; Auto vars:     Size  Location     Type
;;  x               1    0[COMMON] unsigned char 
;; Return value:  Size  Location     Type
;;		None               void
;; Registers used:
;;		wreg, status,2, status,0
;; Tracked objects:
;;		On entry : 0/0
;;		On exit  : 0/0
;;		Unchanged: 0/0
;; Data sizes:     COMMON   BANK0   BANK1   BANK3   BANK2
;;      Params:         0       0       0       0       0
;;      Locals:         1       0       0       0       0
;;      Temps:          0       0       0       0       0
;;      Totals:         1       0       0       0       0
;;Total ram usage:        1 bytes
;; Hardware stack levels used:    1
;; This function calls:
;;		Nothing
;; This function is called by:
;;		_lcd_data
;;		_lcd_cmd
;; This function uses a non-reentrant model
;;
psect	text164
	file	"C:\Users\vinoth k\OneDrive\Desktop\pic codings\ADC peripheral\ADC.c"
	line	9
	global	__size_of_delay
	__size_of_delay	equ	__end_of_delay-_delay
	
_delay:	
	opt	stack 6
; Regs used in _delay: [wreg+status,2+status,0]
;delay@x stored from wreg
	movwf	(delay@x)
	line	10
	
l1924:	
;ADC.c: 10: while(x--);
	goto	l575
	
l576:	
	
l575:	
	
l1926:	
	movlw	low(01h)
	subwf	(delay@x),f
	movf	((delay@x)),w
	xorlw	0FFh
	skipz
	goto	u2171
	goto	u2170
u2171:
	goto	l576
u2170:
	
l577:	
	line	11
	
l578:	
	return
	opt stack 0
GLOBAL	__end_of_delay
	__end_of_delay:
;; =============== function _delay ends ============

	signat	_delay,4216
psect	text165,local,class=CODE,delta=2
global __ptext165
__ptext165:
	global	btemp
	btemp set 07Eh

	DABS	1,126,2	;btemp
	global	wtemp0
	wtemp0 set btemp
	end
